; Function Attrs: mustprogress nofree nounwind willreturn memory(read) uwtable
define noundef i64 @_ZNK3net22CryptoHandshakeMessage4sizeEv(ptr noundef nonnull readonly align 8 captures(address) dereferenceable(72) %0) local_unnamed_addr #9 align 2 {
  %2 = getelementptr inbounds nuw i8, ptr %0, i64 48
  %3 = load i64, ptr %2, align 8, !tbaa !30
  %4 = shl i64 %3, 3
  %5 = add i64 %4, 8
  %6 = getelementptr inbounds nuw i8, ptr %0, i64 32
  %7 = load ptr, ptr %6, align 8, !tbaa !28
  %8 = getelementptr inbounds nuw i8, ptr %0, i64 16
  %.not6 = icmp eq ptr %7, %8
  br i1 %.not6, label %._crit_edge, label %.lr.ph

._crit_edge:                                      ; preds = %.lr.ph, %1
  %.0.lcssa = phi i64 [ %5, %1 ], [ %11, %.lr.ph ]
  ret i64 %.0.lcssa

.lr.ph:                                           ; preds = %1, %.lr.ph
  %.08 = phi i64 [ %11, %.lr.ph ], [ %5, %1 ]
  %.sroa.03.07 = phi ptr [ %12, %.lr.ph ], [ %7, %1 ]
  %9 = getelementptr inbounds nuw i8, ptr %.sroa.03.07, i64 48
  %10 = load i64, ptr %9, align 8, !tbaa !52
  %11 = add i64 %10, %.08
  %12 = tail call noundef ptr @_ZSt18_Rb_tree_incrementPKSt18_Rb_tree_node_base(ptr noundef %.sroa.03.07) #26
  %.not = icmp eq ptr %12, %8
  br i1 %.not, label %._crit_edge, label %.lr.ph, !llvm.loop !66
}